; Function Attrs: mustprogress uwtable
define noundef nonnull align 8 dereferenceable(12) ptr @_ZN3nix10SQLiteStmt3UseclEPKhmb(ptr noundef nonnull returned align 8 dereferenceable(12) %0, ptr noundef %1, i64 noundef %2, i1 noundef zeroext %3) local_unnamed_addr #2 align 2 personality ptr @__gxx_personality_v0 {
  %5 = alloca %"class.std::__cxx11::basic_string", align 8
  %6 = alloca %"class.std::allocator.4", align 1
  br i1 %3, label %7, label %26

7:                                                ; preds = %4
  %8 = load ptr, ptr %0, align 8
  %9 = getelementptr inbounds i8, ptr %8, i64 8
  %10 = load ptr, ptr %9, align 8
  %11 = getelementptr inbounds i8, ptr %0, i64 8
  %12 = load i32, ptr %11, align 8
  %13 = add i32 %12, 1
  store i32 %13, ptr %11, align 8
  %14 = trunc i64 %2 to i32
  %15 = tail call i32 @sqlite3_bind_blob(ptr noundef %10, i32 noundef %12, ptr noundef %1, i32 noundef %14, ptr noundef nonnull inttoptr (i64 -1 to ptr))
  %.not = icmp eq i32 %15, 0
  br i1 %.not, label %28, label %16

16:                                               ; preds = %7
  %17 = load ptr, ptr %0, align 8
  %18 = load ptr, ptr %17, align 8
  call void @_ZNSaIcEC1Ev(ptr noundef nonnull align 1 dereferenceable(1) %6) #22
  invoke void @_ZNSt7__cxx1112basic_stringIcSt11char_traitsIcESaIcEEC2IS3_EEPKcRKS3_(ptr noundef nonnull align 8 dereferenceable(32) %5, ptr noundef nonnull @.str.23, ptr noundef nonnull align 1 dereferenceable(1) %6)
          to label %19 unwind label %21

19:                                               ; preds = %16
  invoke void @_ZN3nix11SQLiteError6throw_IJEEEvP7sqlite3RKNSt7__cxx1112basic_stringIcSt11char_traitsIcESaIcEEEDpRKT_(ptr noundef %18, ptr noundef nonnull align 8 dereferenceable(32) %5) #24
          to label %20 unwind label %23

20:                                               ; preds = %19
  unreachable

21:                                               ; preds = %16
  %22 = landingpad { ptr, i32 }
          cleanup
  br label %25

23:                                               ; preds = %19
  %24 = landingpad { ptr, i32 }
          cleanup
  call void @_ZNSt7__cxx1112basic_stringIcSt11char_traitsIcESaIcEED2Ev(ptr noundef nonnull align 8 dereferenceable(32) %5) #22
  br label %25

25:                                               ; preds = %23, %21
  %.pn = phi { ptr, i32 } [ %24, %23 ], [ %22, %21 ]
  call void @_ZNSaIcED1Ev(ptr noundef nonnull align 1 dereferenceable(1) %6) #22
  resume { ptr, i32 } %.pn

26:                                               ; preds = %4
  %27 = tail call noundef nonnull align 8 dereferenceable(12) ptr @_ZN3nix10SQLiteStmt3Use4bindEv(ptr noundef nonnull align 8 dereferenceable(12) %0)
  br label %28

28:                                               ; preds = %7, %26
  ret ptr %0
}